target datalayout = "e-m:e-p270:32:32-p271:32:32-p272:64:64-i64:64-i128:128-f80:128-n8:16:32:64-S128"
target triple = "x86_64-pc-linux-gnu"

%struct.H5G_loc_t = type { ptr, ptr }
%struct.H5O_loc_t = type { ptr, i64, i8 }
%struct.H5G_name_t = type { ptr, ptr, i32 }

@.str.3 = private unnamed_addr constant [100 x i8] c"generated/home/dtcxzyw/WorkSpace/Projects/compilers/llvm-opt-benchmark/bench/hdf5/hdf5/src/H5Aint.c\00", align 1
@H5E_ATTR_g = external global i64, align 8
@H5E_NOTFOUND_g = external global i64, align 8
@.str.28 = private unnamed_addr constant [17 x i8] c"object not found\00", align 1
@H5E_CANTRELEASE_g = external global i64, align 8
@.str.30 = private unnamed_addr constant [20 x i8] c"can't free location\00", align 1
@H5E_CANTDELETE_g = external global i64, align 8
@.str.94 = private unnamed_addr constant [27 x i8] c"unable to delete attribute\00", align 1
@__func__.H5A__delete_by_idx = private unnamed_addr constant [19 x i8] c"H5A__delete_by_idx\00", align 1

; Function Attrs: nounwind uwtable
define i32 @H5A__delete_by_idx(ptr noundef %0, ptr noundef %1, i32 noundef %2, i32 noundef %3, i64 noundef %4) #0 {
  %6 = alloca ptr, align 8
  %7 = alloca ptr, align 8
  %8 = alloca i32, align 4
  %9 = alloca i32, align 4
  %10 = alloca i64, align 8
  %11 = alloca %struct.H5G_loc_t, align 8
  %12 = alloca %struct.H5G_name_t, align 8
  %13 = alloca %struct.H5O_loc_t, align 8
  %14 = alloca i8, align 1
  %15 = alloca i32, align 4
  %16 = alloca i8, align 1
  store ptr %0, ptr %6, align 8
  store ptr %1, ptr %7, align 8
  store i32 %2, ptr %8, align 4
  store i32 %3, ptr %9, align 4
  store i64 %4, ptr %10, align 8
  store i8 0, ptr %14, align 1
  store i32 0, ptr %15, align 4
  store i8 0, ptr %16, align 1
  %17 = getelementptr inbounds %struct.H5G_loc_t, ptr %11, i32 0, i32 0
  store ptr %13, ptr %17, align 8
  %18 = getelementptr inbounds %struct.H5G_loc_t, ptr %11, i32 0, i32 1
  store ptr %12, ptr %18, align 8
  %19 = call i32 @H5G_loc_reset(ptr noundef %11)
  %20 = load ptr, ptr %6, align 8
  %21 = load ptr, ptr %7, align 8
  %22 = call i32 @H5G_loc_find(ptr noundef %20, ptr noundef %21, ptr noundef %11)
  %23 = icmp slt i32 %22, 0
  br i1 %23, label %24, label %39

24:                                               ; preds = %5
  br label %25

25:                                               ; preds = %24
  br label %26

26:                                               ; preds = %25
  br label %27

27:                                               ; preds = %26
  %28 = load i64, ptr @H5E_ATTR_g, align 8
  %29 = load i64, ptr @H5E_NOTFOUND_g, align 8
  %30 = call i32 (ptr, ptr, i32, i64, i64, ptr, ...) @H5E_printf_stack(ptr noundef @.str.3, ptr noundef @__func__.H5A__delete_by_idx, i32 noundef 2730, i64 noundef %28, i64 noundef %29, ptr noundef @.str.28)
  br label %31

31:                                               ; preds = %27
  store i8 1, ptr %16, align 1
  %32 = load i8, ptr %16, align 1
  %33 = trunc i8 %32 to i1
  %34 = zext i1 %33 to i8
  store i8 %34, ptr %16, align 1
  br label %35

35:                                               ; preds = %31
  br label %36

36:                                               ; preds = %35
  store i32 -1, ptr %15, align 4
  br label %63

37:                                               ; No predecessors!
  br label %38

38:                                               ; preds = %37
  br label %39

39:                                               ; preds = %38, %5
  store i8 1, ptr %14, align 1
  %40 = getelementptr inbounds %struct.H5G_loc_t, ptr %11, i32 0, i32 0
  %41 = load ptr, ptr %40, align 8
  %42 = load i32, ptr %8, align 4
  %43 = load i32, ptr %9, align 4
  %44 = load i64, ptr %10, align 8
  %45 = call i32 @H5O__attr_remove_by_idx(ptr noundef %41, i32 noundef %42, i32 noundef %43, i64 noundef %44)
  %46 = icmp slt i32 %45, 0
  br i1 %46, label %47, label %62

47:                                               ; preds = %39
  br label %48

48:                                               ; preds = %47
  br label %49

49:                                               ; preds = %48
  br label %50

50:                                               ; preds = %49
  %51 = load i64, ptr @H5E_ATTR_g, align 8
  %52 = load i64, ptr @H5E_CANTDELETE_g, align 8
  %53 = call i32 (ptr, ptr, i32, i64, i64, ptr, ...) @H5E_printf_stack(ptr noundef @.str.3, ptr noundef @__func__.H5A__delete_by_idx, i32 noundef 2735, i64 noundef %51, i64 noundef %52, ptr noundef @.str.94)
  br label %54

54:                                               ; preds = %50
  store i8 1, ptr %16, align 1
  %55 = load i8, ptr %16, align 1
  %56 = trunc i8 %55 to i1
  %57 = zext i1 %56 to i8
  store i8 %57, ptr %16, align 1
  br label %58

58:                                               ; preds = %54
  br label %59

59:                                               ; preds = %58
  store i32 -1, ptr %15, align 4
  br label %63

60:                                               ; No predecessors!
  br label %61

61:                                               ; preds = %60
  br label %62

62:                                               ; preds = %61, %39
  br label %63

63:                                               ; preds = %62, %59, %36
  %64 = load i8, ptr %14, align 1
  %65 = trunc i8 %64 to i1
  br i1 %65, label %66, label %82

66:                                               ; preds = %63
  %67 = call i32 @H5G_loc_free(ptr noundef %11)
  %68 = icmp slt i32 %67, 0
  br i1 %68, label %69, label %82

69:                                               ; preds = %66
  br label %70

70:                                               ; preds = %69
  br label %71

71:                                               ; preds = %70
  br label %72

72:                                               ; preds = %71
  %73 = load i64, ptr @H5E_ATTR_g, align 8
  %74 = load i64, ptr @H5E_CANTRELEASE_g, align 8
  %75 = call i32 (ptr, ptr, i32, i64, i64, ptr, ...) @H5E_printf_stack(ptr noundef @.str.3, ptr noundef @__func__.H5A__delete_by_idx, i32 noundef 2740, i64 noundef %73, i64 noundef %74, ptr noundef @.str.30)
  br label %76

76:                                               ; preds = %72
  store i8 1, ptr %16, align 1
  %77 = load i8, ptr %16, align 1
  %78 = trunc i8 %77 to i1
  %79 = zext i1 %78 to i8
  store i8 %79, ptr %16, align 1
  br label %80

80:                                               ; preds = %76
  store i32 -1, ptr %15, align 4
  br label %81

81:                                               ; preds = %80
  br label %82

82:                                               ; preds = %81, %66, %63
  %83 = load i32, ptr %15, align 4
  ret i32 %83
}