; Function Attrs: nounwind uwtable
define range(i32 -1, 1) i32 @H5A__delete_by_idx(ptr noundef %0, ptr noundef %1, i32 noundef %2, i32 noundef %3, i64 noundef %4) local_unnamed_addr #0 {
  %6 = alloca %struct.H5G_loc_t, align 8
  %7 = alloca %struct.H5G_name_t, align 8
  %8 = alloca %struct.H5O_loc_t, align 8
  store ptr %8, ptr %6, align 8
  %9 = getelementptr inbounds i8, ptr %6, i64 8
  store ptr %7, ptr %9, align 8
  %10 = call i32 @H5G_loc_reset(ptr noundef nonnull %6) #13
  %11 = call i32 @H5G_loc_find(ptr noundef %0, ptr noundef %1, ptr noundef nonnull %6) #13
  %12 = icmp sgt i32 %11, -1
  br i1 %12, label %13, label %21

13:                                               ; preds = %5
  %14 = load ptr, ptr %6, align 8
  %15 = call i32 @H5O__attr_remove_by_idx(ptr noundef %14, i32 noundef %2, i32 noundef %3, i64 noundef %4) #13
  %16 = icmp slt i32 %15, 0
  br i1 %16, label %17, label %25

17:                                               ; preds = %13
  %18 = load i64, ptr @H5E_ATTR_g, align 8
  %19 = load i64, ptr @H5E_CANTDELETE_g, align 8
  %20 = call i32 (ptr, ptr, i32, i64, i64, ptr, ...) @H5E_printf_stack(ptr noundef nonnull @.str.3, ptr noundef nonnull @__func__.H5A__delete_by_idx, i32 noundef 2735, i64 noundef %18, i64 noundef %19, ptr noundef nonnull @.str.94) #13
  br label %25

21:                                               ; preds = %5
  %22 = load i64, ptr @H5E_ATTR_g, align 8
  %23 = load i64, ptr @H5E_NOTFOUND_g, align 8
  %24 = call i32 (ptr, ptr, i32, i64, i64, ptr, ...) @H5E_printf_stack(ptr noundef nonnull @.str.3, ptr noundef nonnull @__func__.H5A__delete_by_idx, i32 noundef 2730, i64 noundef %22, i64 noundef %23, ptr noundef nonnull @.str.28) #13
  br label %32

25:                                               ; preds = %13, %17
  %.0.ph = phi i32 [ 0, %13 ], [ -1, %17 ]
  %26 = call i32 @H5G_loc_free(ptr noundef nonnull %6) #13
  %27 = icmp slt i32 %26, 0
  br i1 %27, label %28, label %32

28:                                               ; preds = %25
  %29 = load i64, ptr @H5E_ATTR_g, align 8
  %30 = load i64, ptr @H5E_CANTRELEASE_g, align 8
  %31 = call i32 (ptr, ptr, i32, i64, i64, ptr, ...) @H5E_printf_stack(ptr noundef nonnull @.str.3, ptr noundef nonnull @__func__.H5A__delete_by_idx, i32 noundef 2740, i64 noundef %29, i64 noundef %30, ptr noundef nonnull @.str.30) #13
  br label %32

32:                                               ; preds = %21, %28, %25
  %.1 = phi i32 [ -1, %28 ], [ %.0.ph, %25 ], [ -1, %21 ]
  ret i32 %.1
}